target datalayout = "e-m:e-p270:32:32-p271:32:32-p272:64:64-i64:64-i128:128-f80:128-n8:16:32:64-S128"
target triple = "x86_64-pc-linux-gnu"

%struct._object = type { %union.anon, ptr }
%union.anon = type { i64 }
%struct.anon = type { i32, i32 }

; Function Attrs: alwaysinline nounwind uwtable
define internal i32 @_Py_IsImmortal(ptr noundef %0) #6 {
  %2 = alloca ptr, align 8
  store ptr %0, ptr %2, align 8, !tbaa !178
  %3 = load ptr, ptr %2, align 8, !tbaa !178
  %4 = getelementptr inbounds nuw %struct._object, ptr %3, i32 0, i32 0
  %5 = getelementptr inbounds nuw %struct.anon, ptr %4, i32 0, i32 0
  %6 = load i32, ptr %5, align 8, !tbaa !181
  %7 = icmp slt i32 %6, 0
  %8 = zext i1 %7 to i32
  ret i32 %8
}

; Function Attrs: alwaysinline nounwind uwtable
define internal void @Py_DECREF(ptr noundef %0) #6 {
  %2 = alloca ptr, align 8
  store ptr %0, ptr %2, align 8, !tbaa !178
  %3 = load ptr, ptr %2, align 8, !tbaa !178
  %4 = call i32 @_Py_IsImmortal(ptr noundef %3)
  %5 = icmp ne i32 %4, 0
  br i1 %5, label %6, label %7

6:                                                ; preds = %1
  br label %16

7:                                                ; preds = %1
  %8 = load ptr, ptr %2, align 8, !tbaa !178
  %9 = getelementptr inbounds nuw %struct._object, ptr %8, i32 0, i32 0
  %10 = getelementptr inbounds nuw %struct.anon, ptr %9, i32 0, i32 0
  %11 = load i32, ptr %10, align 8, !tbaa !181
  %12 = add i32 %11, -1
  store i32 %12, ptr %10, align 8, !tbaa !181
  %13 = icmp eq i32 %12, 0
  br i1 %13, label %14, label %16

14:                                               ; preds = %7
  %15 = load ptr, ptr %2, align 8, !tbaa !178
  call void @_Py_Dealloc(ptr noundef %15)
  br label %16

16:                                               ; preds = %6, %14, %7
  ret void
}

; Function Attrs: nounwind uwtable
define dso_local i32 @_Py_stat(ptr noundef %0, ptr noundef %1) #0 {
  %3 = alloca i32, align 4
  %4 = alloca ptr, align 8
  %5 = alloca ptr, align 8
  %6 = alloca i32, align 4
  %7 = alloca ptr, align 8
  %8 = alloca ptr, align 8
  %9 = alloca i32, align 4
  store ptr %0, ptr %4, align 8, !tbaa !178
  store ptr %1, ptr %5, align 8, !tbaa !193
  call void @llvm.lifetime.start.p0(i64 4, ptr %6) #10
  call void @llvm.lifetime.start.p0(i64 8, ptr %7) #10
  call void @llvm.lifetime.start.p0(i64 8, ptr %8) #10
  %10 = load ptr, ptr %4, align 8, !tbaa !178
  %11 = call ptr @PyUnicode_EncodeFSDefault(ptr noundef %10)
  store ptr %11, ptr %7, align 8, !tbaa !178
  %12 = load ptr, ptr %7, align 8, !tbaa !178
  %13 = icmp eq ptr %12, null
  br i1 %13, label %14, label %15

14:                                               ; preds = %2
  store i32 -2, ptr %3, align 4
  store i32 1, ptr %9, align 4
  br label %27

15:                                               ; preds = %2
  %16 = load ptr, ptr %7, align 8, !tbaa !178
  %17 = call i32 @PyBytes_AsStringAndSize(ptr noundef %16, ptr noundef %8, ptr noundef null)
  %18 = icmp eq i32 %17, -1
  br i1 %18, label %19, label %21

19:                                               ; preds = %15
  %20 = load ptr, ptr %7, align 8, !tbaa !178
  call void @Py_DECREF(ptr noundef %20)
  store i32 -2, ptr %3, align 4
  store i32 1, ptr %9, align 4
  br label %27

21:                                               ; preds = %15
  %22 = load ptr, ptr %8, align 8, !tbaa !180
  %23 = load ptr, ptr %5, align 8, !tbaa !193
  %24 = call i32 @stat64(ptr noundef %22, ptr noundef %23) #10
  store i32 %24, ptr %6, align 4, !tbaa !4
  %25 = load ptr, ptr %7, align 8, !tbaa !178
  call void @Py_DECREF(ptr noundef %25)
  %26 = load i32, ptr %6, align 4, !tbaa !4
  store i32 %26, ptr %3, align 4
  store i32 1, ptr %9, align 4
  br label %27

27:                                               ; preds = %21, %19, %14
  call void @llvm.lifetime.end.p0(i64 8, ptr %8) #10
  call void @llvm.lifetime.end.p0(i64 8, ptr %7) #10
  call void @llvm.lifetime.end.p0(i64 4, ptr %6) #10
  %28 = load i32, ptr %3, align 4
  ret i32 %28
}