; Function Attrs: nounwind uwtable
define dso_local noundef i32 @_Py_stat(ptr noundef %0, ptr noundef captures(none) %1) local_unnamed_addr #0 {
  %3 = alloca ptr, align 8
  call void @llvm.lifetime.start.p0(i64 8, ptr nonnull %3) #17
  %4 = tail call ptr @PyUnicode_EncodeFSDefault(ptr noundef %0) #17
  %5 = icmp eq ptr %4, null
  br i1 %5, label %Py_DECREF.exit, label %6

6:                                                ; preds = %2
  %7 = call i32 @PyBytes_AsStringAndSize(ptr noundef nonnull %4, ptr noundef nonnull %3, ptr noundef null) #17
  %8 = icmp eq i32 %7, -1
  br i1 %8, label %9, label %14

9:                                                ; preds = %6
  %10 = load i32, ptr %4, align 8, !tbaa !175
  %.not.i = icmp sgt i32 %10, -1
  br i1 %.not.i, label %11, label %Py_DECREF.exit

11:                                               ; preds = %9
  %12 = add nsw i32 %10, -1
  store i32 %12, ptr %4, align 8, !tbaa !175
  %13 = icmp eq i32 %12, 0
  br i1 %13, label %Py_DECREF.exit.sink.split, label %Py_DECREF.exit

14:                                               ; preds = %6
  %15 = load ptr, ptr %3, align 8, !tbaa !177
  %16 = call i32 @stat64(ptr noundef %15, ptr noundef %1) #17
  %17 = load i32, ptr %4, align 8, !tbaa !175
  %.not.i8 = icmp sgt i32 %17, -1
  br i1 %.not.i8, label %18, label %Py_DECREF.exit

18:                                               ; preds = %14
  %19 = add nsw i32 %17, -1
  store i32 %19, ptr %4, align 8, !tbaa !175
  %20 = icmp eq i32 %19, 0
  br i1 %20, label %Py_DECREF.exit.sink.split, label %Py_DECREF.exit

Py_DECREF.exit.sink.split:                        ; preds = %18, %11
  %.0.ph = phi i32 [ -2, %11 ], [ %16, %18 ]
  call void @_Py_Dealloc(ptr noundef nonnull %4) #17
  br label %Py_DECREF.exit

Py_DECREF.exit:                                   ; preds = %Py_DECREF.exit.sink.split, %18, %14, %11, %9, %2
  %.0 = phi i32 [ -2, %2 ], [ -2, %9 ], [ -2, %11 ], [ %16, %14 ], [ %16, %18 ], [ %.0.ph, %Py_DECREF.exit.sink.split ]
  call void @llvm.lifetime.end.p0(i64 8, ptr nonnull %3) #17
  ret i32 %.0
}